; Function Attrs: nounwind uwtable
define noalias nonnull ptr @l_Lake_BuildTrace_nil(ptr noundef %0) local_unnamed_addr #0 {
  %2 = load ptr, ptr @l_Lake_BuildTrace_withoutInputs___closed__1, align 8, !tbaa !9
  %3 = load ptr, ptr @l_Lake_MTime_instOfNat___closed__2, align 8, !tbaa !9
  %4 = load ptr, ptr @l_Lake_BuildTrace_nil___boxed__const__1, align 8, !tbaa !9
  tail call void @lean_inc_heartbeat() #4
  %5 = tail call noalias ptr @mi_malloc_small(i64 noundef 40) #4
  %6 = icmp eq ptr %5, null
  br i1 %6, label %7, label %lean_alloc_ctor.exit

7:                                                ; preds = %1
  tail call void @lean_internal_panic_out_of_memory() #5
  unreachable

lean_alloc_ctor.exit:                             ; preds = %1
  %8 = getelementptr inbounds nuw i8, ptr %5, i64 4
  store i32 1, ptr %5, align 4, !tbaa !4
  store i32 262184, ptr %8, align 4
  %9 = getelementptr inbounds nuw i8, ptr %5, i64 8
  store ptr %0, ptr %9, align 8, !tbaa !9
  %10 = getelementptr inbounds nuw i8, ptr %5, i64 16
  store ptr %2, ptr %10, align 8, !tbaa !9
  %11 = getelementptr inbounds nuw i8, ptr %5, i64 24
  store ptr %4, ptr %11, align 8, !tbaa !9
  %12 = getelementptr inbounds nuw i8, ptr %5, i64 32
  store ptr %3, ptr %12, align 8, !tbaa !9
  ret ptr %5
}